; Function Attrs: mustprogress nounwind uwtable
define void @_ZN5Yosys3AST9AstModuleD2Ev(ptr noundef nonnull align 8 dereferenceable(579) %0) unnamed_addr #3 align 2 {
  store ptr getelementptr inbounds ({ [14 x ptr] }, ptr @_ZTVN5Yosys3AST9AstModuleE, i64 0, i32 0, i64 2), ptr %0, align 8
  %2 = getelementptr inbounds i8, ptr %0, i64 560
  %3 = load ptr, ptr %2, align 8
  %.not = icmp eq ptr %3, null
  br i1 %.not, label %5, label %4

4:                                                ; preds = %1
  tail call void @_ZN5Yosys3AST7AstNodeD1Ev(ptr noundef nonnull align 8 dereferenceable(284) %3) #34
  tail call void @_ZdlPv(ptr noundef nonnull %3) #33
  br label %5

5:                                                ; preds = %4, %1
  tail call void @_ZN5Yosys5RTLIL6ModuleD2Ev(ptr noundef nonnull align 8 dereferenceable(560) %0) #34
  ret void
}